target datalayout = "e-m:e-p270:32:32-p271:32:32-p272:64:64-i64:64-i128:128-f80:128-n8:16:32:64-S128"
target triple = "x86_64-pc-linux-gnu"

%struct.LexState = type { i32, i32, i32, %struct.Token, %struct.Token, ptr, ptr, ptr, ptr, ptr, ptr, ptr, ptr }
%struct.Token = type { i32, %union.SemInfo }
%union.SemInfo = type { double }
%struct.Zio = type { i64, ptr, ptr, ptr, ptr }

@luai_ctype_ = external hidden constant [257 x i8], align 16
@.str.50 = private unnamed_addr constant [27 x i8] c"hexadecimal digit expected\00", align 1

; Function Attrs: nounwind uwtable
define internal void @esccheck(ptr noundef %0, i32 noundef %1, ptr noundef %2) #0 {
  %4 = alloca ptr, align 8
  %5 = alloca i32, align 4
  %6 = alloca ptr, align 8
  store ptr %0, ptr %4, align 8, !tbaa !18
  store i32 %1, ptr %5, align 4, !tbaa !11
  store ptr %2, ptr %6, align 8, !tbaa !13
  %7 = load i32, ptr %5, align 4, !tbaa !11
  %8 = icmp ne i32 %7, 0
  br i1 %8, label %47, label %9

9:                                                ; preds = %3
  %10 = load ptr, ptr %4, align 8, !tbaa !18
  %11 = getelementptr inbounds nuw %struct.LexState, ptr %10, i32 0, i32 0
  %12 = load i32, ptr %11, align 8, !tbaa !55
  %13 = icmp ne i32 %12, -1
  br i1 %13, label %14, label %44

14:                                               ; preds = %9
  %15 = load ptr, ptr %4, align 8, !tbaa !18
  %16 = load ptr, ptr %4, align 8, !tbaa !18
  %17 = getelementptr inbounds nuw %struct.LexState, ptr %16, i32 0, i32 0
  %18 = load i32, ptr %17, align 8, !tbaa !55
  call void @save(ptr noundef %15, i32 noundef %18)
  %19 = load ptr, ptr %4, align 8, !tbaa !18
  %20 = getelementptr inbounds nuw %struct.LexState, ptr %19, i32 0, i32 7
  %21 = load ptr, ptr %20, align 8, !tbaa !57
  %22 = getelementptr inbounds nuw %struct.Zio, ptr %21, i32 0, i32 0
  %23 = load i64, ptr %22, align 8, !tbaa !68
  %24 = add i64 %23, -1
  store i64 %24, ptr %22, align 8, !tbaa !68
  %25 = icmp ugt i64 %23, 0
  br i1 %25, label %26, label %35

26:                                               ; preds = %14
  %27 = load ptr, ptr %4, align 8, !tbaa !18
  %28 = getelementptr inbounds nuw %struct.LexState, ptr %27, i32 0, i32 7
  %29 = load ptr, ptr %28, align 8, !tbaa !57
  %30 = getelementptr inbounds nuw %struct.Zio, ptr %29, i32 0, i32 1
  %31 = load ptr, ptr %30, align 8, !tbaa !70
  %32 = getelementptr inbounds nuw i8, ptr %31, i32 1
  store ptr %32, ptr %30, align 8, !tbaa !70
  %33 = load i8, ptr %31, align 1, !tbaa !20
  %34 = zext i8 %33 to i32
  br label %40

35:                                               ; preds = %14
  %36 = load ptr, ptr %4, align 8, !tbaa !18
  %37 = getelementptr inbounds nuw %struct.LexState, ptr %36, i32 0, i32 7
  %38 = load ptr, ptr %37, align 8, !tbaa !57
  %39 = call i32 @luaZ_fill(ptr noundef %38)
  br label %40

40:                                               ; preds = %35, %26
  %41 = phi i32 [ %34, %26 ], [ %39, %35 ]
  %42 = load ptr, ptr %4, align 8, !tbaa !18
  %43 = getelementptr inbounds nuw %struct.LexState, ptr %42, i32 0, i32 0
  store i32 %41, ptr %43, align 8, !tbaa !55
  br label %44

44:                                               ; preds = %40, %9
  %45 = load ptr, ptr %4, align 8, !tbaa !18
  %46 = load ptr, ptr %6, align 8, !tbaa !13
  call void @lexerror(ptr noundef %45, ptr noundef %46, i32 noundef 292) #7
  unreachable

47:                                               ; preds = %3
  ret void
}

; Function Attrs: nounwind uwtable
define internal i32 @gethexa(ptr noundef %0) #0 {
  %2 = alloca ptr, align 8
  store ptr %0, ptr %2, align 8, !tbaa !18
  %3 = load ptr, ptr %2, align 8, !tbaa !18
  %4 = load ptr, ptr %2, align 8, !tbaa !18
  %5 = getelementptr inbounds nuw %struct.LexState, ptr %4, i32 0, i32 0
  %6 = load i32, ptr %5, align 8, !tbaa !55
  call void @save(ptr noundef %3, i32 noundef %6)
  %7 = load ptr, ptr %2, align 8, !tbaa !18
  %8 = getelementptr inbounds nuw %struct.LexState, ptr %7, i32 0, i32 7
  %9 = load ptr, ptr %8, align 8, !tbaa !57
  %10 = getelementptr inbounds nuw %struct.Zio, ptr %9, i32 0, i32 0
  %11 = load i64, ptr %10, align 8, !tbaa !68
  %12 = add i64 %11, -1
  store i64 %12, ptr %10, align 8, !tbaa !68
  %13 = icmp ugt i64 %11, 0
  br i1 %13, label %14, label %23

14:                                               ; preds = %1
  %15 = load ptr, ptr %2, align 8, !tbaa !18
  %16 = getelementptr inbounds nuw %struct.LexState, ptr %15, i32 0, i32 7
  %17 = load ptr, ptr %16, align 8, !tbaa !57
  %18 = getelementptr inbounds nuw %struct.Zio, ptr %17, i32 0, i32 1
  %19 = load ptr, ptr %18, align 8, !tbaa !70
  %20 = getelementptr inbounds nuw i8, ptr %19, i32 1
  store ptr %20, ptr %18, align 8, !tbaa !70
  %21 = load i8, ptr %19, align 1, !tbaa !20
  %22 = zext i8 %21 to i32
  br label %28

23:                                               ; preds = %1
  %24 = load ptr, ptr %2, align 8, !tbaa !18
  %25 = getelementptr inbounds nuw %struct.LexState, ptr %24, i32 0, i32 7
  %26 = load ptr, ptr %25, align 8, !tbaa !57
  %27 = call i32 @luaZ_fill(ptr noundef %26)
  br label %28

28:                                               ; preds = %23, %14
  %29 = phi i32 [ %22, %14 ], [ %27, %23 ]
  %30 = load ptr, ptr %2, align 8, !tbaa !18
  %31 = getelementptr inbounds nuw %struct.LexState, ptr %30, i32 0, i32 0
  store i32 %29, ptr %31, align 8, !tbaa !55
  %32 = load ptr, ptr %2, align 8, !tbaa !18
  %33 = load ptr, ptr %2, align 8, !tbaa !18
  %34 = getelementptr inbounds nuw %struct.LexState, ptr %33, i32 0, i32 0
  %35 = load i32, ptr %34, align 8, !tbaa !55
  %36 = add nsw i32 %35, 1
  %37 = sext i32 %36 to i64
  %38 = getelementptr inbounds [257 x i8], ptr @luai_ctype_, i64 0, i64 %37
  %39 = load i8, ptr %38, align 1, !tbaa !20
  %40 = zext i8 %39 to i32
  %41 = and i32 %40, 16
  call void @esccheck(ptr noundef %32, i32 noundef %41, ptr noundef @.str.50)
  %42 = load ptr, ptr %2, align 8, !tbaa !18
  %43 = getelementptr inbounds nuw %struct.LexState, ptr %42, i32 0, i32 0
  %44 = load i32, ptr %43, align 8, !tbaa !55
  %45 = call zeroext i8 @luaO_hexavalue(i32 noundef %44)
  %46 = zext i8 %45 to i32
  ret i32 %46
}