; Function Attrs: nounwind uwtable
define internal fastcc range(i32 0, 256) i32 @gethexa(ptr noundef captures(none) %0) unnamed_addr #0 {
  %2 = load i32, ptr %0, align 8, !tbaa !51
  %3 = getelementptr inbounds nuw i8, ptr %0, i64 72
  %4 = load ptr, ptr %3, align 8, !tbaa !27
  %5 = getelementptr inbounds nuw i8, ptr %4, i64 8
  %6 = load i64, ptr %5, align 8, !tbaa !28
  %7 = add i64 %6, 1
  %8 = getelementptr inbounds nuw i8, ptr %4, i64 16
  %9 = load i64, ptr %8, align 8, !tbaa !31
  %10 = icmp ugt i64 %7, %9
  br i1 %10, label %11, label %._crit_edge.i

._crit_edge.i:                                    ; preds = %1
  %.pre.i = load ptr, ptr %4, align 8, !tbaa !32
  br label %save.exit

11:                                               ; preds = %1
  %12 = icmp ugt i64 %9, 4611686018427387902
  br i1 %12, label %13, label %14

13:                                               ; preds = %11
  tail call fastcc void @lexerror(ptr noundef nonnull readonly %0, ptr noundef nonnull @.str.42, i32 noundef 0) #7
  unreachable

14:                                               ; preds = %11
  %15 = shl nuw nsw i64 %9, 1
  %16 = getelementptr inbounds nuw i8, ptr %0, i64 56
  %17 = load ptr, ptr %16, align 8, !tbaa !14
  %18 = load ptr, ptr %4, align 8, !tbaa !32
  %19 = tail call ptr @luaM_saferealloc_(ptr noundef %17, ptr noundef %18, i64 noundef %9, i64 noundef %15) #6
  store ptr %19, ptr %4, align 8, !tbaa !32
  store i64 %15, ptr %8, align 8, !tbaa !31
  %.pre15.i = load i64, ptr %5, align 8, !tbaa !28
  %.pre16.i = add i64 %.pre15.i, 1
  br label %save.exit

save.exit:                                        ; preds = %._crit_edge.i, %14
  %.pre-phi.i = phi i64 [ %7, %._crit_edge.i ], [ %.pre16.i, %14 ]
  %20 = phi i64 [ %6, %._crit_edge.i ], [ %.pre15.i, %14 ]
  %21 = phi ptr [ %.pre.i, %._crit_edge.i ], [ %19, %14 ]
  %22 = trunc i32 %2 to i8
  store i64 %.pre-phi.i, ptr %5, align 8, !tbaa !28
  %23 = getelementptr inbounds nuw i8, ptr %21, i64 %20
  store i8 %22, ptr %23, align 1, !tbaa !13
  %24 = getelementptr inbounds nuw i8, ptr %0, i64 64
  %25 = load ptr, ptr %24, align 8, !tbaa !53
  %26 = load i64, ptr %25, align 8, !tbaa !59
  %27 = add i64 %26, -1
  store i64 %27, ptr %25, align 8, !tbaa !59
  %.not = icmp eq i64 %26, 0
  br i1 %.not, label %34, label %28

28:                                               ; preds = %save.exit
  %29 = getelementptr inbounds nuw i8, ptr %25, i64 8
  %30 = load ptr, ptr %29, align 8, !tbaa !61
  %31 = getelementptr inbounds nuw i8, ptr %30, i64 1
  store ptr %31, ptr %29, align 8, !tbaa !61
  %32 = load i8, ptr %30, align 1, !tbaa !13
  %33 = zext i8 %32 to i32
  br label %36

34:                                               ; preds = %save.exit
  %35 = tail call i32 @luaZ_fill(ptr noundef nonnull %25) #6
  br label %36

36:                                               ; preds = %34, %28
  %37 = phi i32 [ %33, %28 ], [ %35, %34 ]
  store i32 %37, ptr %0, align 8, !tbaa !51
  %38 = add nsw i32 %37, 1
  %39 = sext i32 %38 to i64
  %40 = getelementptr inbounds [257 x i8], ptr @luai_ctype_, i64 0, i64 %39
  %41 = load i8, ptr %40, align 1, !tbaa !13
  %42 = and i8 %41, 16
  %.not.i = icmp eq i8 %42, 0
  br i1 %.not.i, label %43, label %esccheck.exit

43:                                               ; preds = %36
  %.not9.i = icmp eq i32 %37, -1
  br i1 %.not9.i, label %58, label %44

44:                                               ; preds = %43
  tail call fastcc void @save(ptr noundef nonnull %0, i32 noundef %37)
  %45 = load ptr, ptr %24, align 8, !tbaa !53
  %46 = load i64, ptr %45, align 8, !tbaa !59
  %47 = add i64 %46, -1
  store i64 %47, ptr %45, align 8, !tbaa !59
  %.not10.i = icmp eq i64 %46, 0
  br i1 %.not10.i, label %54, label %48

48:                                               ; preds = %44
  %49 = getelementptr inbounds nuw i8, ptr %45, i64 8
  %50 = load ptr, ptr %49, align 8, !tbaa !61
  %51 = getelementptr inbounds nuw i8, ptr %50, i64 1
  store ptr %51, ptr %49, align 8, !tbaa !61
  %52 = load i8, ptr %50, align 1, !tbaa !13
  %53 = zext i8 %52 to i32
  br label %56

54:                                               ; preds = %44
  %55 = tail call i32 @luaZ_fill(ptr noundef nonnull %45) #6
  br label %56

56:                                               ; preds = %54, %48
  %57 = phi i32 [ %53, %48 ], [ %55, %54 ]
  store i32 %57, ptr %0, align 8, !tbaa !51
  br label %58

58:                                               ; preds = %56, %43
  tail call fastcc void @lexerror(ptr noundef nonnull %0, ptr noundef nonnull @.str.50, i32 noundef 292) #7
  unreachable

esccheck.exit:                                    ; preds = %36
  %59 = tail call zeroext i8 @luaO_hexavalue(i32 noundef %37) #6
  %60 = zext i8 %59 to i32
  ret i32 %60
}